target datalayout = "e-m:e-p270:32:32-p271:32:32-p272:64:64-i64:64-i128:128-f80:128-n8:16:32:64-S128"
target triple = "x86_64-pc-linux-gnu"

%struct.ccan_list_head = type { %struct.ccan_list_node }
%struct.ccan_list_node = type { ptr, ptr }
%struct.rb_objspace = type { %struct.anon.33, %struct.rb_gc_config, [3 x i8], %struct.anon.19, i32, i64, [5 x %struct.rb_heap_struct], i64, ptr, %struct.anon.34, %struct.mark_stack, i64, %struct.anon.35, ptr, %struct.anon.36, i64, %struct.anon.37, %struct.anon.38, %struct.anon.39, ptr, ptr, i64, ptr, i32, i64 }
%struct.anon.33 = type { i64, i64 }
%struct.rb_gc_config = type { i8 }
%struct.anon.19 = type { i16, [2 x i8] }
%struct.rb_heap_struct = type { i16, i64, i64, i64, i64, i64, i64, i64, i64, ptr, %struct.ccan_list_head, ptr, ptr, i64, ptr, i64, i64 }
%struct.anon.34 = type { i32 }
%struct.mark_stack = type { ptr, ptr, i32, i32, i64, i64 }
%struct.anon.35 = type { ptr, i64, i64, [2 x i64], i64, i64, i64 }
%struct.anon.36 = type { i32, i32, ptr, ptr, i64, i64, double, i64, i64, i64, i64, double, i64, i64, i64, i64, %struct.timespec, i64, %struct.timespec, i64, i64 }
%struct.timespec = type { i64, i64 }
%struct.anon.37 = type { i64, i32, i64, i64, i64, i64, i64, i64, i64 }
%struct.anon.38 = type { [31 x i64], [31 x i64], [31 x i64], [31 x i64], i64, ptr }
%struct.anon.39 = type { i64, i64 }
%struct.anon.54 = type { %struct.rb_darray_meta, [0 x ptr] }
%struct.rb_darray_meta = type { i64, i64 }
%struct.heap_page = type { i16, i16, i16, i16, i16, [2 x i8], %struct.anon.20, ptr, ptr, ptr, i64, ptr, %struct.ccan_list_node, [26 x i64], [26 x i64], [26 x i64], [26 x i64], [26 x i64], [26 x i64], [52 x i64] }
%struct.anon.20 = type { i8, [3 x i8] }

; Function Attrs: inlinehint nounwind sspstrong uwtable
define internal void @asan_poison_memory_region(ptr noundef %0, i64 noundef %1) #2 {
  %3 = alloca ptr, align 8
  %4 = alloca i64, align 8
  store ptr %0, ptr %3, align 8, !tbaa !76
  store i64 %1, ptr %4, align 8, !tbaa !18
  ret void
}

; Function Attrs: inlinehint nounwind sspstrong uwtable
define internal void @asan_unpoison_memory_region(ptr noundef %0, i64 noundef %1, i1 noundef zeroext %2) #2 {
  %4 = alloca ptr, align 8
  %5 = alloca i64, align 8
  %6 = alloca i8, align 1
  store ptr %0, ptr %4, align 8, !tbaa !76
  store i64 %1, ptr %5, align 8, !tbaa !18
  %7 = zext i1 %2 to i8
  store i8 %7, ptr %6, align 1, !tbaa !41
  %8 = load i8, ptr %6, align 1, !tbaa !41, !range !122, !noundef !123
  %9 = trunc i8 %8 to i1
  br i1 %9, label %10, label %11

10:                                               ; preds = %3
  br label %12

11:                                               ; preds = %3
  br label %12

12:                                               ; preds = %11, %10
  ret void
}

; Function Attrs: inlinehint nounwind sspstrong uwtable
define internal ptr @asan_poison_memory_region_restore(ptr noundef %0, i64 noundef %1, ptr noundef %2) #2 {
  %4 = alloca ptr, align 8
  %5 = alloca i64, align 8
  %6 = alloca ptr, align 8
  store ptr %0, ptr %4, align 8, !tbaa !76
  store i64 %1, ptr %5, align 8, !tbaa !18
  store ptr %2, ptr %6, align 8, !tbaa !76
  %7 = load ptr, ptr %6, align 8, !tbaa !76
  %8 = icmp ne ptr %7, null
  br i1 %8, label %9, label %12

9:                                                ; preds = %3
  %10 = load ptr, ptr %4, align 8, !tbaa !76
  %11 = load i64, ptr %5, align 8, !tbaa !18
  call void @asan_poison_memory_region(ptr noundef %10, i64 noundef %11)
  br label %12

12:                                               ; preds = %9, %3
  ret ptr null
}

; Function Attrs: inlinehint nounwind sspstrong uwtable
define internal ptr @asan_unpoison_memory_region_temporary(ptr noundef %0, i64 noundef %1) #2 {
  %3 = alloca ptr, align 8
  %4 = alloca i64, align 8
  %5 = alloca ptr, align 8
  store ptr %0, ptr %3, align 8, !tbaa !76
  store i64 %1, ptr %4, align 8, !tbaa !18
  call void @llvm.lifetime.start.p0(i64 8, ptr %5) #6
  store ptr null, ptr %5, align 8, !tbaa !76
  %6 = load ptr, ptr %3, align 8, !tbaa !76
  %7 = load i64, ptr %4, align 8, !tbaa !18
  call void @asan_unpoison_memory_region(ptr noundef %6, i64 noundef %7, i1 noundef zeroext false)
  %8 = load ptr, ptr %5, align 8, !tbaa !76
  call void @llvm.lifetime.end.p0(i64 8, ptr %5) #6
  ret ptr %8
}

; Function Attrs: inlinehint nounwind sspstrong uwtable
define available_externally ptr @bsearch(ptr noundef nonnull %0, ptr noundef nonnull %1, i64 noundef %2, i64 noundef %3, ptr noundef nonnull %4) #2 {
  %6 = alloca ptr, align 8
  %7 = alloca ptr, align 8
  %8 = alloca ptr, align 8
  %9 = alloca i64, align 8
  %10 = alloca i64, align 8
  %11 = alloca ptr, align 8
  %12 = alloca i64, align 8
  %13 = alloca i64, align 8
  %14 = alloca i64, align 8
  %15 = alloca ptr, align 8
  %16 = alloca i32, align 4
  %17 = alloca i32, align 4
  store ptr %0, ptr %7, align 8, !tbaa !76
  store ptr %1, ptr %8, align 8, !tbaa !76
  store i64 %2, ptr %9, align 8, !tbaa !18
  store i64 %3, ptr %10, align 8, !tbaa !18
  store ptr %4, ptr %11, align 8, !tbaa !76
  call void @llvm.lifetime.start.p0(i64 8, ptr %12) #6
  call void @llvm.lifetime.start.p0(i64 8, ptr %13) #6
  call void @llvm.lifetime.start.p0(i64 8, ptr %14) #6
  call void @llvm.lifetime.start.p0(i64 8, ptr %15) #6
  call void @llvm.lifetime.start.p0(i64 4, ptr %16) #6
  store i64 0, ptr %12, align 8, !tbaa !18
  %18 = load i64, ptr %9, align 8, !tbaa !18
  store i64 %18, ptr %13, align 8, !tbaa !18
  br label %19

19:                                               ; preds = %50, %5
  %20 = load i64, ptr %12, align 8, !tbaa !18
  %21 = load i64, ptr %13, align 8, !tbaa !18
  %22 = icmp ult i64 %20, %21
  br i1 %22, label %23, label %51

23:                                               ; preds = %19
  %24 = load i64, ptr %12, align 8, !tbaa !18
  %25 = load i64, ptr %13, align 8, !tbaa !18
  %26 = add i64 %24, %25
  %27 = udiv i64 %26, 2
  store i64 %27, ptr %14, align 8, !tbaa !18
  %28 = load ptr, ptr %8, align 8, !tbaa !76
  %29 = load i64, ptr %14, align 8, !tbaa !18
  %30 = load i64, ptr %10, align 8, !tbaa !18
  %31 = mul i64 %29, %30
  %32 = getelementptr i8, ptr %28, i64 %31
  store ptr %32, ptr %15, align 8, !tbaa !76
  %33 = load ptr, ptr %11, align 8, !tbaa !76
  %34 = load ptr, ptr %7, align 8, !tbaa !76
  %35 = load ptr, ptr %15, align 8, !tbaa !76
  %36 = call i32 %33(ptr noundef %34, ptr noundef %35)
  store i32 %36, ptr %16, align 4, !tbaa !7
  %37 = load i32, ptr %16, align 4, !tbaa !7
  %38 = icmp slt i32 %37, 0
  br i1 %38, label %39, label %41

39:                                               ; preds = %23
  %40 = load i64, ptr %14, align 8, !tbaa !18
  store i64 %40, ptr %13, align 8, !tbaa !18
  br label %50

41:                                               ; preds = %23
  %42 = load i32, ptr %16, align 4, !tbaa !7
  %43 = icmp sgt i32 %42, 0
  br i1 %43, label %44, label %47

44:                                               ; preds = %41
  %45 = load i64, ptr %14, align 8, !tbaa !18
  %46 = add i64 %45, 1
  store i64 %46, ptr %12, align 8, !tbaa !18
  br label %49

47:                                               ; preds = %41
  %48 = load ptr, ptr %15, align 8, !tbaa !76
  store ptr %48, ptr %6, align 8
  store i32 1, ptr %17, align 4
  br label %52

49:                                               ; preds = %44
  br label %50

50:                                               ; preds = %49, %39
  br label %19, !llvm.loop !541

51:                                               ; preds = %19
  store ptr null, ptr %6, align 8
  store i32 1, ptr %17, align 4
  br label %52

52:                                               ; preds = %51, %47
  call void @llvm.lifetime.end.p0(i64 4, ptr %16) #6
  call void @llvm.lifetime.end.p0(i64 8, ptr %15) #6
  call void @llvm.lifetime.end.p0(i64 8, ptr %14) #6
  call void @llvm.lifetime.end.p0(i64 8, ptr %13) #6
  call void @llvm.lifetime.end.p0(i64 8, ptr %12) #6
  %53 = load ptr, ptr %6, align 8
  ret ptr %53
}

; Function Attrs: inlinehint nounwind sspstrong uwtable
define internal i64 @rb_darray_size(ptr noundef %0) #2 {
  %2 = alloca ptr, align 8
  %3 = alloca ptr, align 8
  store ptr %0, ptr %2, align 8, !tbaa !76
  call void @llvm.lifetime.start.p0(i64 8, ptr %3) #6
  %4 = load ptr, ptr %2, align 8, !tbaa !76
  store ptr %4, ptr %3, align 8, !tbaa !461
  %5 = load ptr, ptr %3, align 8, !tbaa !461
  %6 = icmp ne ptr %5, null
  br i1 %6, label %7, label %11

7:                                                ; preds = %1
  %8 = load ptr, ptr %3, align 8, !tbaa !461
  %9 = getelementptr inbounds nuw %struct.rb_darray_meta, ptr %8, i32 0, i32 0
  %10 = load i64, ptr %9, align 8, !tbaa !277
  br label %12

11:                                               ; preds = %1
  br label %12

12:                                               ; preds = %11, %7
  %13 = phi i64 [ %10, %7 ], [ 0, %11 ]
  call void @llvm.lifetime.end.p0(i64 8, ptr %3) #6
  ret i64 %13
}

; Function Attrs: inlinehint nounwind sspstrong uwtable
define internal zeroext i1 @heap_page_in_global_empty_pages_pool(ptr noundef %0, ptr noundef %1) #2 {
  %3 = alloca i1, align 1
  %4 = alloca ptr, align 8
  %5 = alloca ptr, align 8
  %6 = alloca ptr, align 8
  %7 = alloca ptr, align 8
  store ptr %0, ptr %4, align 8, !tbaa !125
  store ptr %1, ptr %5, align 8, !tbaa !163
  %8 = load ptr, ptr %5, align 8, !tbaa !163
  %9 = getelementptr inbounds nuw %struct.heap_page, ptr %8, i32 0, i32 1
  %10 = load i16, ptr %9, align 2, !tbaa !247
  %11 = zext i16 %10 to i32
  %12 = icmp eq i32 %11, 0
  br i1 %12, label %13, label %28

13:                                               ; preds = %2
  call void @llvm.lifetime.start.p0(i64 8, ptr %6) #6
  %14 = load ptr, ptr %5, align 8, !tbaa !163
  %15 = getelementptr inbounds nuw %struct.heap_page, ptr %14, i32 0, i32 11
  %16 = call ptr @asan_unpoison_memory_region_temporary(ptr noundef %15, i64 noundef 8)
  store ptr %16, ptr %6, align 8, !tbaa !76
  call void @llvm.lifetime.start.p0(i64 8, ptr %7) #6
  store ptr %6, ptr %7, align 8, !tbaa !76
  br label %17

17:                                               ; preds = %22, %13
  %18 = load ptr, ptr %7, align 8, !tbaa !76
  %19 = icmp ne ptr %18, null
  br i1 %19, label %21, label %20

20:                                               ; preds = %17
  call void @llvm.lifetime.end.p0(i64 8, ptr %7) #6
  call void @llvm.lifetime.end.p0(i64 8, ptr %6) #6
  br label %27

21:                                               ; preds = %17
  br label %22

22:                                               ; preds = %21
  %23 = load ptr, ptr %5, align 8, !tbaa !163
  %24 = getelementptr inbounds nuw %struct.heap_page, ptr %23, i32 0, i32 11
  %25 = load ptr, ptr %6, align 8, !tbaa !76
  %26 = call ptr @asan_poison_memory_region_restore(ptr noundef %24, i64 noundef 8, ptr noundef %25)
  store ptr %26, ptr %7, align 8, !tbaa !76
  br label %17, !llvm.loop !540

27:                                               ; preds = %20
  store i1 true, ptr %3, align 1
  br label %29

28:                                               ; preds = %2
  store i1 false, ptr %3, align 1
  br label %29

29:                                               ; preds = %28, %27
  %30 = load i1, ptr %3, align 1
  ret i1 %30
}

; Function Attrs: inlinehint nounwind sspstrong willreturn memory(read) uwtable
define internal ptr @heap_page_for_ptr(ptr noundef %0, i64 noundef %1) #9 {
  %3 = alloca ptr, align 8
  %4 = alloca ptr, align 8
  %5 = alloca i64, align 8
  %6 = alloca ptr, align 8
  %7 = alloca i32, align 4
  store ptr %0, ptr %4, align 8, !tbaa !125
  store i64 %1, ptr %5, align 8, !tbaa !18
  call void @llvm.lifetime.start.p0(i64 8, ptr %6) #6
  %8 = load i64, ptr %5, align 8, !tbaa !18
  %9 = load ptr, ptr %4, align 8, !tbaa !125
  %10 = getelementptr inbounds nuw %struct.rb_objspace, ptr %9, i32 0, i32 12
  %11 = getelementptr inbounds nuw %struct.anon.35, ptr %10, i32 0, i32 3
  %12 = getelementptr [2 x i64], ptr %11, i64 0, i64 0
  %13 = load i64, ptr %12, align 8, !tbaa !18
  %14 = icmp ult i64 %8, %13
  br i1 %14, label %23, label %15

15:                                               ; preds = %2
  %16 = load i64, ptr %5, align 8, !tbaa !18
  %17 = load ptr, ptr %4, align 8, !tbaa !125
  %18 = getelementptr inbounds nuw %struct.rb_objspace, ptr %17, i32 0, i32 12
  %19 = getelementptr inbounds nuw %struct.anon.35, ptr %18, i32 0, i32 3
  %20 = getelementptr [2 x i64], ptr %19, i64 0, i64 1
  %21 = load i64, ptr %20, align 8, !tbaa !18
  %22 = icmp ugt i64 %16, %21
  br i1 %22, label %23, label %24

23:                                               ; preds = %15, %2
  store ptr null, ptr %3, align 8
  store i32 1, ptr %7, align 4
  br label %45

24:                                               ; preds = %15
  %25 = load i64, ptr %5, align 8, !tbaa !18
  %26 = inttoptr i64 %25 to ptr
  %27 = load ptr, ptr %4, align 8, !tbaa !125
  %28 = getelementptr inbounds nuw %struct.rb_objspace, ptr %27, i32 0, i32 12
  %29 = getelementptr inbounds nuw %struct.anon.35, ptr %28, i32 0, i32 0
  %30 = load ptr, ptr %29, align 8, !tbaa !162
  %31 = getelementptr inbounds nuw %struct.anon.54, ptr %30, i32 0, i32 1
  %32 = getelementptr [0 x ptr], ptr %31, i64 0, i64 0
  %33 = load ptr, ptr %4, align 8, !tbaa !125
  %34 = getelementptr inbounds nuw %struct.rb_objspace, ptr %33, i32 0, i32 12
  %35 = getelementptr inbounds nuw %struct.anon.35, ptr %34, i32 0, i32 0
  %36 = load ptr, ptr %35, align 8, !tbaa !162
  %37 = call i64 @rb_darray_size(ptr noundef %36)
  %38 = call ptr @bsearch(ptr noundef %26, ptr noundef %32, i64 noundef %37, i64 noundef 8, ptr noundef @ptr_in_page_body_p)
  store ptr %38, ptr %6, align 8, !tbaa !538
  %39 = load ptr, ptr %6, align 8, !tbaa !538
  %40 = icmp ne ptr %39, null
  br i1 %40, label %41, label %44

41:                                               ; preds = %24
  %42 = load ptr, ptr %6, align 8, !tbaa !538
  %43 = load ptr, ptr %42, align 8, !tbaa !163
  store ptr %43, ptr %3, align 8
  store i32 1, ptr %7, align 4
  br label %45

44:                                               ; preds = %24
  store ptr null, ptr %3, align 8
  store i32 1, ptr %7, align 4
  br label %45

45:                                               ; preds = %44, %41, %23
  call void @llvm.lifetime.end.p0(i64 8, ptr %6) #6
  %46 = load ptr, ptr %3, align 8
  ret ptr %46
}

; Function Attrs: inlinehint nounwind sspstrong willreturn memory(read) uwtable
define internal zeroext i1 @is_pointer_to_heap(ptr noundef %0, ptr noundef %1) #9 {
  %3 = alloca i1, align 1
  %4 = alloca ptr, align 8
  %5 = alloca ptr, align 8
  %6 = alloca i64, align 8
  %7 = alloca ptr, align 8
  %8 = alloca i32, align 4
  store ptr %0, ptr %4, align 8, !tbaa !125
  store ptr %1, ptr %5, align 8, !tbaa !76
  call void @llvm.lifetime.start.p0(i64 8, ptr %6) #6
  %9 = load ptr, ptr %5, align 8, !tbaa !76
  %10 = ptrtoint ptr %9 to i64
  store i64 %10, ptr %6, align 8, !tbaa !18
  call void @llvm.lifetime.start.p0(i64 8, ptr %7) #6
  %11 = load i64, ptr %6, align 8, !tbaa !18
  %12 = load ptr, ptr %4, align 8, !tbaa !125
  %13 = getelementptr inbounds nuw %struct.rb_objspace, ptr %12, i32 0, i32 12
  %14 = getelementptr inbounds nuw %struct.anon.35, ptr %13, i32 0, i32 3
  %15 = getelementptr [2 x i64], ptr %14, i64 0, i64 0
  %16 = load i64, ptr %15, align 8, !tbaa !18
  %17 = icmp ult i64 %11, %16
  br i1 %17, label %26, label %18

18:                                               ; preds = %2
  %19 = load i64, ptr %6, align 8, !tbaa !18
  %20 = load ptr, ptr %4, align 8, !tbaa !125
  %21 = getelementptr inbounds nuw %struct.rb_objspace, ptr %20, i32 0, i32 12
  %22 = getelementptr inbounds nuw %struct.anon.35, ptr %21, i32 0, i32 3
  %23 = getelementptr [2 x i64], ptr %22, i64 0, i64 1
  %24 = load i64, ptr %23, align 8, !tbaa !18
  %25 = icmp ugt i64 %19, %24
  br i1 %25, label %26, label %27

26:                                               ; preds = %18, %2
  store i1 false, ptr %3, align 1
  store i32 1, ptr %8, align 4
  br label %83

27:                                               ; preds = %18
  %28 = load i64, ptr %6, align 8, !tbaa !18
  %29 = urem i64 %28, 40
  %30 = icmp ne i64 %29, 0
  br i1 %30, label %31, label %32

31:                                               ; preds = %27
  store i1 false, ptr %3, align 1
  store i32 1, ptr %8, align 4
  br label %83

32:                                               ; preds = %27
  %33 = load ptr, ptr %4, align 8, !tbaa !125
  %34 = load ptr, ptr %5, align 8, !tbaa !76
  %35 = ptrtoint ptr %34 to i64
  %36 = call ptr @heap_page_for_ptr(ptr noundef %33, i64 noundef %35) #44
  store ptr %36, ptr %7, align 8, !tbaa !163
  %37 = load ptr, ptr %7, align 8, !tbaa !163
  %38 = icmp ne ptr %37, null
  br i1 %38, label %39, label %82

39:                                               ; preds = %32
  %40 = load ptr, ptr %4, align 8, !tbaa !125
  %41 = load ptr, ptr %7, align 8, !tbaa !163
  %42 = call zeroext i1 @heap_page_in_global_empty_pages_pool(ptr noundef %40, ptr noundef %41)
  br i1 %42, label %43, label %44

43:                                               ; preds = %39
  store i1 false, ptr %3, align 1
  store i32 1, ptr %8, align 4
  br label %83

44:                                               ; preds = %39
  %45 = load i64, ptr %6, align 8, !tbaa !18
  %46 = load ptr, ptr %7, align 8, !tbaa !163
  %47 = getelementptr inbounds nuw %struct.heap_page, ptr %46, i32 0, i32 10
  %48 = load i64, ptr %47, align 8, !tbaa !246
  %49 = icmp ult i64 %45, %48
  br i1 %49, label %50, label %51

50:                                               ; preds = %44
  store i1 false, ptr %3, align 1
  store i32 1, ptr %8, align 4
  br label %83

51:                                               ; preds = %44
  %52 = load i64, ptr %6, align 8, !tbaa !18
  %53 = load ptr, ptr %7, align 8, !tbaa !163
  %54 = getelementptr inbounds nuw %struct.heap_page, ptr %53, i32 0, i32 10
  %55 = load i64, ptr %54, align 8, !tbaa !246
  %56 = load ptr, ptr %7, align 8, !tbaa !163
  %57 = getelementptr inbounds nuw %struct.heap_page, ptr %56, i32 0, i32 1
  %58 = load i16, ptr %57, align 2, !tbaa !247
  %59 = zext i16 %58 to i32
  %60 = load ptr, ptr %7, align 8, !tbaa !163
  %61 = getelementptr inbounds nuw %struct.heap_page, ptr %60, i32 0, i32 0
  %62 = load i16, ptr %61, align 8, !tbaa !172
  %63 = zext i16 %62 to i32
  %64 = mul i32 %59, %63
  %65 = sext i32 %64 to i64
  %66 = add i64 %55, %65
  %67 = icmp uge i64 %52, %66
  br i1 %67, label %68, label %69

68:                                               ; preds = %51
  store i1 false, ptr %3, align 1
  store i32 1, ptr %8, align 4
  br label %83

69:                                               ; preds = %51
  %70 = load i64, ptr %6, align 8, !tbaa !18
  %71 = and i64 %70, 65535
  %72 = udiv i64 %71, 40
  %73 = mul i64 %72, 40
  %74 = load ptr, ptr %7, align 8, !tbaa !163
  %75 = getelementptr inbounds nuw %struct.heap_page, ptr %74, i32 0, i32 0
  %76 = load i16, ptr %75, align 8, !tbaa !172
  %77 = zext i16 %76 to i64
  %78 = urem i64 %73, %77
  %79 = icmp ne i64 %78, 0
  br i1 %79, label %80, label %81

80:                                               ; preds = %69
  store i1 false, ptr %3, align 1
  store i32 1, ptr %8, align 4
  br label %83

81:                                               ; preds = %69
  store i1 true, ptr %3, align 1
  store i32 1, ptr %8, align 4
  br label %83

82:                                               ; preds = %32
  store i1 false, ptr %3, align 1
  store i32 1, ptr %8, align 4
  br label %83

83:                                               ; preds = %82, %81, %80, %68, %50, %43, %31, %26
  call void @llvm.lifetime.end.p0(i64 8, ptr %7) #6
  call void @llvm.lifetime.end.p0(i64 8, ptr %6) #6
  %84 = load i1, ptr %3, align 1
  ret i1 %84
}