; Function Attrs: inlinehint mustprogress nofree norecurse nosync nounwind sspstrong willreturn memory(read, inaccessiblemem: none) uwtable
define internal fastcc zeroext i1 @is_pointer_to_heap(ptr noundef readonly captures(none) %0, ptr noundef %1) unnamed_addr #45 {
  %3 = ptrtoint ptr %1 to i64
  %4 = getelementptr inbounds nuw i8, ptr %0, i64 856
  %5 = load i64, ptr %4, align 8, !tbaa !93
  %6 = icmp ugt i64 %5, %3
  br i1 %6, label %heap_page_for_ptr.exit.thread, label %7

7:                                                ; preds = %2
  %8 = getelementptr i8, ptr %0, i64 864
  %9 = load i64, ptr %8, align 8, !tbaa !93
  %10 = icmp uge i64 %9, %3
  %11 = urem i64 %3, 40
  %.not = icmp eq i64 %11, 0
  %or.cond = and i1 %.not, %10
  br i1 %or.cond, label %12, label %heap_page_for_ptr.exit.thread

12:                                               ; preds = %7
  %13 = getelementptr inbounds nuw i8, ptr %0, i64 832
  %14 = load ptr, ptr %13, align 8, !tbaa !170
  %15 = getelementptr inbounds nuw i8, ptr %14, i64 16
  %.not.i.i = icmp eq ptr %14, null
  br i1 %.not.i.i, label %heap_page_for_ptr.exit.thread, label %rb_darray_size.exit.i

rb_darray_size.exit.i:                            ; preds = %12
  %16 = load i64, ptr %14, align 8, !tbaa !171
  %.not24.i.i = icmp eq i64 %16, 0
  br i1 %.not24.i.i, label %heap_page_for_ptr.exit.thread, label %.lr.ph.i.i

.lr.ph.i.i:                                       ; preds = %rb_darray_size.exit.i, %29
  %.01621.i.i = phi i64 [ %.1.i.i, %29 ], [ 0, %rb_darray_size.exit.i ]
  %.01720.i.i = phi i64 [ %.118.i.i, %29 ], [ %16, %rb_darray_size.exit.i ]
  %17 = add i64 %.01720.i.i, %.01621.i.i
  %18 = lshr i64 %17, 1
  %19 = shl i64 %18, 3
  %20 = getelementptr i8, ptr %15, i64 %19
  %21 = load ptr, ptr %20, align 8, !tbaa !173
  %22 = getelementptr inbounds nuw i8, ptr %21, i64 32
  %23 = load ptr, ptr %22, align 8, !tbaa !175
  %.not.i12.i = icmp ugt ptr %23, %1
  br i1 %.not.i12.i, label %29, label %24

24:                                               ; preds = %.lr.ph.i.i
  %25 = ptrtoint ptr %23 to i64
  %26 = add i64 %25, 65536
  %.not17.i = icmp ugt i64 %26, %3
  br i1 %.not17.i, label %heap_page_for_ptr.exit, label %27

27:                                               ; preds = %24
  %28 = add nuw i64 %18, 1
  br label %29

29:                                               ; preds = %27, %.lr.ph.i.i
  %.118.i.i = phi i64 [ %.01720.i.i, %27 ], [ %18, %.lr.ph.i.i ]
  %.1.i.i = phi i64 [ %28, %27 ], [ %.01621.i.i, %.lr.ph.i.i ]
  %30 = icmp ult i64 %.1.i.i, %.118.i.i
  br i1 %30, label %.lr.ph.i.i, label %heap_page_for_ptr.exit.thread, !llvm.loop !263

heap_page_for_ptr.exit:                           ; preds = %24
  %31 = getelementptr i8, ptr %21, i64 2
  %.val = load i16, ptr %31, align 2, !tbaa !258
  %32 = icmp eq i16 %.val, 0
  br i1 %32, label %heap_page_for_ptr.exit.thread, label %33

33:                                               ; preds = %heap_page_for_ptr.exit
  %34 = getelementptr inbounds nuw i8, ptr %21, i64 40
  %35 = load i64, ptr %34, align 8, !tbaa !257
  %36 = icmp ugt i64 %35, %3
  br i1 %36, label %heap_page_for_ptr.exit.thread, label %37

37:                                               ; preds = %33
  %38 = zext i16 %.val to i64
  %39 = load i16, ptr %21, align 8, !tbaa !189
  %40 = zext i16 %39 to i64
  %41 = shl nuw nsw i64 %38, 32
  %sext = mul nuw i64 %41, %40
  %42 = ashr exact i64 %sext, 32
  %43 = add i64 %42, %35
  %.not23 = icmp ugt i64 %43, %3
  br i1 %.not23, label %44, label %heap_page_for_ptr.exit.thread

44:                                               ; preds = %37
  %45 = trunc i64 %3 to i16
  %.lhs.trunc = and i16 %45, -8
  %46 = urem i16 %.lhs.trunc, 40
  %.lhs.trunc27 = sub nuw i16 %.lhs.trunc, %46
  %47 = urem i16 %.lhs.trunc27, %39
  %.not24 = icmp eq i16 %47, 0
  br label %heap_page_for_ptr.exit.thread

heap_page_for_ptr.exit.thread:                    ; preds = %29, %12, %rb_darray_size.exit.i, %44, %37, %33, %heap_page_for_ptr.exit, %2, %7
  %.0 = phi i1 [ false, %7 ], [ false, %2 ], [ false, %heap_page_for_ptr.exit ], [ false, %33 ], [ false, %37 ], [ %.not24, %44 ], [ false, %rb_darray_size.exit.i ], [ false, %12 ], [ false, %29 ]
  ret i1 %.0
}